; Function Attrs: mustprogress uwtable
define dso_local void @_ZN9cmProcess10OnAllocateEmP8uv_buf_t(ptr noundef nonnull align 8 dereferenceable(316) %0, i64 noundef %1, ptr noundef writeonly captures(none) initializes((0, 16)) %2) local_unnamed_addr #3 align 2 {
  %4 = getelementptr inbounds nuw i8, ptr %0, i64 96
  %5 = getelementptr inbounds nuw i8, ptr %0, i64 104
  %6 = load ptr, ptr %5, align 8
  %7 = load ptr, ptr %4, align 8
  %8 = ptrtoint ptr %6 to i64
  %9 = ptrtoint ptr %7 to i64
  %10 = sub i64 %8, %9
  %.not = icmp eq i64 %10, 65536
  br i1 %.not, label %13, label %11

11:                                               ; preds = %3
  tail call void @_ZNSt6vectorIcSaIcEE6resizeEm(ptr noundef nonnull align 8 dereferenceable(24) %4, i64 noundef 65536)
  %.pre = load ptr, ptr %4, align 8
  %.pre2 = load ptr, ptr %5, align 8
  %.pre3 = ptrtoint ptr %.pre2 to i64
  %.pre4 = ptrtoint ptr %.pre to i64
  %.pre6 = sub i64 %.pre3, %.pre4
  %12 = trunc i64 %.pre6 to i32
  br label %13

13:                                               ; preds = %11, %3
  %.pre-phi7 = phi i32 [ %12, %11 ], [ 65536, %3 ]
  %14 = phi ptr [ %.pre, %11 ], [ %7, %3 ]
  %15 = tail call { ptr, i64 } @uv_buf_init(ptr noundef %14, i32 noundef %.pre-phi7)
  %16 = extractvalue { ptr, i64 } %15, 0
  %17 = extractvalue { ptr, i64 } %15, 1
  store ptr %16, ptr %2, align 8
  %.sroa.2.0..sroa_idx = getelementptr inbounds nuw i8, ptr %2, i64 8
  store i64 %17, ptr %.sroa.2.0..sroa_idx, align 8
  ret void
}